; Function Attrs: mustprogress uwtable
define void @_ZNK10llama_file9write_u32Ej(ptr noundef nonnull readonly align 8 captures(none) dereferenceable(8) %0, i32 noundef %1) local_unnamed_addr #0 align 2 {
  %3 = alloca i32, align 4
  %4 = load ptr, ptr %0, align 8, !tbaa !6
  call void @llvm.lifetime.start.p0(i64 4, ptr nonnull %3)
  store i32 %1, ptr %3, align 4, !tbaa !15
  call void @_ZNK10llama_file4impl9write_rawEPKvm(ptr noundef nonnull align 8 dereferenceable(16) %4, ptr noundef nonnull %3, i64 noundef 4)
  call void @llvm.lifetime.end.p0(i64 4, ptr nonnull %3)
  ret void
}